; ModuleID = '56/229.c'
source_filename = "56/229.c"
target datalayout = "e-m:e-p270:32:32-p271:32:32-p272:64:64-i64:64-f80:128-n8:16:32:64-S128"
target triple = "x86_64-pc-linux-gnu"

@.str = private unnamed_addr constant [3 x i8] c"%d\00", align 1
@.str.1 = private unnamed_addr constant [12 x i8] c"%d%d%d%d%d\0A\00", align 1
@.str.2 = private unnamed_addr constant [10 x i8] c"%d%d%d%d\0A\00", align 1
@.str.3 = private unnamed_addr constant [8 x i8] c"%d%d%d\0A\00", align 1
@.str.4 = private unnamed_addr constant [6 x i8] c"%d%d\0A\00", align 1
@.str.5 = private unnamed_addr constant [4 x i8] c"%d\0A\00", align 1

; Function Attrs: noinline nounwind uwtable
define dso_local i32 @main() #0 {
  %1 = alloca i32, align 4
  %2 = alloca [99 x i32], align 16
  %3 = alloca [99 x i32], align 16
  %4 = alloca [99 x i32], align 16
  %5 = alloca [99 x i32], align 16
  %6 = alloca [99 x i32], align 16
  %7 = alloca [99 x i32], align 16
  %8 = alloca i32, align 4
  store i32 0, i32* %1, align 4
  store i32 1, i32* %8, align 4
  br label %9

9:                                                ; preds = %17, %0
  %10 = load i32, i32* %8, align 4
  %11 = icmp sle i32 %10, 4
  br i1 %11, label %12, label %20

12:                                               ; preds = %9
  %13 = load i32, i32* %8, align 4
  %14 = sext i32 %13 to i64
  %15 = getelementptr inbounds [99 x i32], [99 x i32]* %7, i64 0, i64 %14
  %16 = call i32 (i8*, ...) @__isoc99_scanf(i8* getelementptr inbounds ([3 x i8], [3 x i8]* @.str, i64 0, i64 0), i32* %15)
  br label %17

17:                                               ; preds = %12
  %18 = load i32, i32* %8, align 4
  %19 = add nsw i32 %18, 1
  store i32 %19, i32* %8, align 4
  br label %9

20:                                               ; preds = %9
  store i32 1, i32* %8, align 4
  br label %21

21:                                               ; preds = %378, %20
  %22 = load i32, i32* %8, align 4
  %23 = icmp sle i32 %22, 4
  br i1 %23, label %24, label %381

24:                                               ; preds = %21
  %25 = load i32, i32* %8, align 4
  %26 = sext i32 %25 to i64
  %27 = getelementptr inbounds [99 x i32], [99 x i32]* %7, i64 0, i64 %26
  %28 = load i32, i32* %27, align 4
  %29 = icmp sgt i32 %28, 9999
  br i1 %29, label %30, label %151

30:                                               ; preds = %24
  %31 = load i32, i32* %8, align 4
  %32 = sext i32 %31 to i64
  %33 = getelementptr inbounds [99 x i32], [99 x i32]* %7, i64 0, i64 %32
  %34 = load i32, i32* %33, align 4
  %35 = sdiv i32 %34, 10000
  %36 = load i32, i32* %8, align 4
  %37 = sext i32 %36 to i64
  %38 = getelementptr inbounds [99 x i32], [99 x i32]* %2, i64 0, i64 %37
  store i32 %35, i32* %38, align 4
  %39 = load i32, i32* %8, align 4
  %40 = sext i32 %39 to i64
  %41 = getelementptr inbounds [99 x i32], [99 x i32]* %7, i64 0, i64 %40
  %42 = load i32, i32* %41, align 4
  %43 = load i32, i32* %8, align 4
  %44 = sext i32 %43 to i64
  %45 = getelementptr inbounds [99 x i32], [99 x i32]* %2, i64 0, i64 %44
  %46 = load i32, i32* %45, align 4
  %47 = mul nsw i32 %46, 10000
  %48 = sub nsw i32 %42, %47
  %49 = sdiv i32 %48, 1000
  %50 = load i32, i32* %8, align 4
  %51 = sext i32 %50 to i64
  %52 = getelementptr inbounds [99 x i32], [99 x i32]* %3, i64 0, i64 %51
  store i32 %49, i32* %52, align 4
  %53 = load i32, i32* %8, align 4
  %54 = sext i32 %53 to i64
  %55 = getelementptr inbounds [99 x i32], [99 x i32]* %7, i64 0, i64 %54
  %56 = load i32, i32* %55, align 4
  %57 = load i32, i32* %8, align 4
  %58 = sext i32 %57 to i64
  %59 = getelementptr inbounds [99 x i32], [99 x i32]* %2, i64 0, i64 %58
  %60 = load i32, i32* %59, align 4
  %61 = mul nsw i32 %60, 10000
  %62 = sub nsw i32 %56, %61
  %63 = load i32, i32* %8, align 4
  %64 = sext i32 %63 to i64
  %65 = getelementptr inbounds [99 x i32], [99 x i32]* %3, i64 0, i64 %64
  %66 = load i32, i32* %65, align 4
  %67 = mul nsw i32 %66, 1000
  %68 = sub nsw i32 %62, %67
  %69 = sdiv i32 %68, 100
  %70 = load i32, i32* %8, align 4
  %71 = sext i32 %70 to i64
  %72 = getelementptr inbounds [99 x i32], [99 x i32]* %4, i64 0, i64 %71
  store i32 %69, i32* %72, align 4
  %73 = load i32, i32* %8, align 4
  %74 = sext i32 %73 to i64
  %75 = getelementptr inbounds [99 x i32], [99 x i32]* %7, i64 0, i64 %74
  %76 = load i32, i32* %75, align 4
  %77 = load i32, i32* %8, align 4
  %78 = sext i32 %77 to i64
  %79 = getelementptr inbounds [99 x i32], [99 x i32]* %2, i64 0, i64 %78
  %80 = load i32, i32* %79, align 4
  %81 = mul nsw i32 %80, 10000
  %82 = sub nsw i32 %76, %81
  %83 = load i32, i32* %8, align 4
  %84 = sext i32 %83 to i64
  %85 = getelementptr inbounds [99 x i32], [99 x i32]* %3, i64 0, i64 %84
  %86 = load i32, i32* %85, align 4
  %87 = mul nsw i32 %86, 1000
  %88 = sub nsw i32 %82, %87
  %89 = load i32, i32* %8, align 4
  %90 = sext i32 %89 to i64
  %91 = getelementptr inbounds [99 x i32], [99 x i32]* %4, i64 0, i64 %90
  %92 = load i32, i32* %91, align 4
  %93 = mul nsw i32 %92, 100
  %94 = sub nsw i32 %88, %93
  %95 = sdiv i32 %94, 10
  %96 = load i32, i32* %8, align 4
  %97 = sext i32 %96 to i64
  %98 = getelementptr inbounds [99 x i32], [99 x i32]* %5, i64 0, i64 %97
  store i32 %95, i32* %98, align 4
  %99 = load i32, i32* %8, align 4
  %100 = sext i32 %99 to i64
  %101 = getelementptr inbounds [99 x i32], [99 x i32]* %7, i64 0, i64 %100
  %102 = load i32, i32* %101, align 4
  %103 = load i32, i32* %8, align 4
  %104 = sext i32 %103 to i64
  %105 = getelementptr inbounds [99 x i32], [99 x i32]* %2, i64 0, i64 %104
  %106 = load i32, i32* %105, align 4
  %107 = mul nsw i32 %106, 10000
  %108 = sub nsw i32 %102, %107
  %109 = load i32, i32* %8, align 4
  %110 = sext i32 %109 to i64
  %111 = getelementptr inbounds [99 x i32], [99 x i32]* %3, i64 0, i64 %110
  %112 = load i32, i32* %111, align 4
  %113 = mul nsw i32 %112, 1000
  %114 = sub nsw i32 %108, %113
  %115 = load i32, i32* %8, align 4
  %116 = sext i32 %115 to i64
  %117 = getelementptr inbounds [99 x i32], [99 x i32]* %4, i64 0, i64 %116
  %118 = load i32, i32* %117, align 4
  %119 = mul nsw i32 %118, 100
  %120 = sub nsw i32 %114, %119
  %121 = load i32, i32* %8, align 4
  %122 = sext i32 %121 to i64
  %123 = getelementptr inbounds [99 x i32], [99 x i32]* %5, i64 0, i64 %122
  %124 = load i32, i32* %123, align 4
  %125 = mul nsw i32 %124, 10
  %126 = sub nsw i32 %120, %125
  %127 = load i32, i32* %8, align 4
  %128 = sext i32 %127 to i64
  %129 = getelementptr inbounds [99 x i32], [99 x i32]* %6, i64 0, i64 %128
  store i32 %126, i32* %129, align 4
  %130 = load i32, i32* %8, align 4
  %131 = sext i32 %130 to i64
  %132 = getelementptr inbounds [99 x i32], [99 x i32]* %6, i64 0, i64 %131
  %133 = load i32, i32* %132, align 4
  %134 = load i32, i32* %8, align 4
  %135 = sext i32 %134 to i64
  %136 = getelementptr inbounds [99 x i32], [99 x i32]* %5, i64 0, i64 %135
  %137 = load i32, i32* %136, align 4
  %138 = load i32, i32* %8, align 4
  %139 = sext i32 %138 to i64
  %140 = getelementptr inbounds [99 x i32], [99 x i32]* %4, i64 0, i64 %139
  %141 = load i32, i32* %140, align 4
  %142 = load i32, i32* %8, align 4
  %143 = sext i32 %142 to i64
  %144 = getelementptr inbounds [99 x i32], [99 x i32]* %3, i64 0, i64 %143
  %145 = load i32, i32* %144, align 4
  %146 = load i32, i32* %8, align 4
  %147 = sext i32 %146 to i64
  %148 = getelementptr inbounds [99 x i32], [99 x i32]* %2, i64 0, i64 %147
  %149 = load i32, i32* %148, align 4
  %150 = call i32 (i8*, ...) @printf(i8* getelementptr inbounds ([12 x i8], [12 x i8]* @.str.1, i64 0, i64 0), i32 %133, i32 %137, i32 %141, i32 %145, i32 %149)
  br label %151

151:                                              ; preds = %30, %24
  %152 = load i32, i32* %8, align 4
  %153 = sext i32 %152 to i64
  %154 = getelementptr inbounds [99 x i32], [99 x i32]* %7, i64 0, i64 %153
  %155 = load i32, i32* %154, align 4
  %156 = icmp sgt i32 %155, 999
  br i1 %156, label %157, label %248

157:                                              ; preds = %151
  %158 = load i32, i32* %8, align 4
  %159 = sext i32 %158 to i64
  %160 = getelementptr inbounds [99 x i32], [99 x i32]* %7, i64 0, i64 %159
  %161 = load i32, i32* %160, align 4
  %162 = icmp sle i32 %161, 9999
  br i1 %162, label %163, label %248

163:                                              ; preds = %157
  %164 = load i32, i32* %8, align 4
  %165 = sext i32 %164 to i64
  %166 = getelementptr inbounds [99 x i32], [99 x i32]* %7, i64 0, i64 %165
  %167 = load i32, i32* %166, align 4
  %168 = sdiv i32 %167, 1000
  %169 = load i32, i32* %8, align 4
  %170 = sext i32 %169 to i64
  %171 = getelementptr inbounds [99 x i32], [99 x i32]* %3, i64 0, i64 %170
  store i32 %168, i32* %171, align 4
  %172 = load i32, i32* %8, align 4
  %173 = sext i32 %172 to i64
  %174 = getelementptr inbounds [99 x i32], [99 x i32]* %7, i64 0, i64 %173
  %175 = load i32, i32* %174, align 4
  %176 = load i32, i32* %8, align 4
  %177 = sext i32 %176 to i64
  %178 = getelementptr inbounds [99 x i32], [99 x i32]* %3, i64 0, i64 %177
  %179 = load i32, i32* %178, align 4
  %180 = mul nsw i32 %179, 1000
  %181 = sub nsw i32 %175, %180
  %182 = sdiv i32 %181, 100
  %183 = load i32, i32* %8, align 4
  %184 = sext i32 %183 to i64
  %185 = getelementptr inbounds [99 x i32], [99 x i32]* %4, i64 0, i64 %184
  store i32 %182, i32* %185, align 4
  %186 = load i32, i32* %8, align 4
  %187 = sext i32 %186 to i64
  %188 = getelementptr inbounds [99 x i32], [99 x i32]* %7, i64 0, i64 %187
  %189 = load i32, i32* %188, align 4
  %190 = load i32, i32* %8, align 4
  %191 = sext i32 %190 to i64
  %192 = getelementptr inbounds [99 x i32], [99 x i32]* %3, i64 0, i64 %191
  %193 = load i32, i32* %192, align 4
  %194 = mul nsw i32 %193, 1000
  %195 = sub nsw i32 %189, %194
  %196 = load i32, i32* %8, align 4
  %197 = sext i32 %196 to i64
  %198 = getelementptr inbounds [99 x i32], [99 x i32]* %4, i64 0, i64 %197
  %199 = load i32, i32* %198, align 4
  %200 = mul nsw i32 %199, 100
  %201 = sub nsw i32 %195, %200
  %202 = sdiv i32 %201, 10
  %203 = load i32, i32* %8, align 4
  %204 = sext i32 %203 to i64
  %205 = getelementptr inbounds [99 x i32], [99 x i32]* %5, i64 0, i64 %204
  store i32 %202, i32* %205, align 4
  %206 = load i32, i32* %8, align 4
  %207 = sext i32 %206 to i64
  %208 = getelementptr inbounds [99 x i32], [99 x i32]* %7, i64 0, i64 %207
  %209 = load i32, i32* %208, align 4
  %210 = load i32, i32* %8, align 4
  %211 = sext i32 %210 to i64
  %212 = getelementptr inbounds [99 x i32], [99 x i32]* %3, i64 0, i64 %211
  %213 = load i32, i32* %212, align 4
  %214 = mul nsw i32 %213, 1000
  %215 = sub nsw i32 %209, %214
  %216 = load i32, i32* %8, align 4
  %217 = sext i32 %216 to i64
  %218 = getelementptr inbounds [99 x i32], [99 x i32]* %4, i64 0, i64 %217
  %219 = load i32, i32* %218, align 4
  %220 = mul nsw i32 %219, 100
  %221 = sub nsw i32 %215, %220
  %222 = load i32, i32* %8, align 4
  %223 = sext i32 %222 to i64
  %224 = getelementptr inbounds [99 x i32], [99 x i32]* %5, i64 0, i64 %223
  %225 = load i32, i32* %224, align 4
  %226 = mul nsw i32 %225, 10
  %227 = sub nsw i32 %221, %226
  %228 = load i32, i32* %8, align 4
  %229 = sext i32 %228 to i64
  %230 = getelementptr inbounds [99 x i32], [99 x i32]* %6, i64 0, i64 %229
  store i32 %227, i32* %230, align 4
  %231 = load i32, i32* %8, align 4
  %232 = sext i32 %231 to i64
  %233 = getelementptr inbounds [99 x i32], [99 x i32]* %6, i64 0, i64 %232
  %234 = load i32, i32* %233, align 4
  %235 = load i32, i32* %8, align 4
  %236 = sext i32 %235 to i64
  %237 = getelementptr inbounds [99 x i32], [99 x i32]* %5, i64 0, i64 %236
  %238 = load i32, i32* %237, align 4
  %239 = load i32, i32* %8, align 4
  %240 = sext i32 %239 to i64
  %241 = getelementptr inbounds [99 x i32], [99 x i32]* %4, i64 0, i64 %240
  %242 = load i32, i32* %241, align 4
  %243 = load i32, i32* %8, align 4
  %244 = sext i32 %243 to i64
  %245 = getelementptr inbounds [99 x i32], [99 x i32]* %3, i64 0, i64 %244
  %246 = load i32, i32* %245, align 4
  %247 = call i32 (i8*, ...) @printf(i8* getelementptr inbounds ([10 x i8], [10 x i8]* @.str.2, i64 0, i64 0), i32 %234, i32 %238, i32 %242, i32 %246)
  br label %248

248:                                              ; preds = %163, %157, %151
  %249 = load i32, i32* %8, align 4
  %250 = sext i32 %249 to i64
  %251 = getelementptr inbounds [99 x i32], [99 x i32]* %7, i64 0, i64 %250
  %252 = load i32, i32* %251, align 4
  %253 = icmp sgt i32 %252, 99
  br i1 %253, label %254, label %315

254:                                              ; preds = %248
  %255 = load i32, i32* %8, align 4
  %256 = sext i32 %255 to i64
  %257 = getelementptr inbounds [99 x i32], [99 x i32]* %7, i64 0, i64 %256
  %258 = load i32, i32* %257, align 4
  %259 = icmp sle i32 %258, 999
  br i1 %259, label %260, label %315

260:                                              ; preds = %254
  %261 = load i32, i32* %8, align 4
  %262 = sext i32 %261 to i64
  %263 = getelementptr inbounds [99 x i32], [99 x i32]* %7, i64 0, i64 %262
  %264 = load i32, i32* %263, align 4
  %265 = sdiv i32 %264, 100
  %266 = load i32, i32* %8, align 4
  %267 = sext i32 %266 to i64
  %268 = getelementptr inbounds [99 x i32], [99 x i32]* %4, i64 0, i64 %267
  store i32 %265, i32* %268, align 4
  %269 = load i32, i32* %8, align 4
  %270 = sext i32 %269 to i64
  %271 = getelementptr inbounds [99 x i32], [99 x i32]* %7, i64 0, i64 %270
  %272 = load i32, i32* %271, align 4
  %273 = load i32, i32* %8, align 4
  %274 = sext i32 %273 to i64
  %275 = getelementptr inbounds [99 x i32], [99 x i32]* %4, i64 0, i64 %274
  %276 = load i32, i32* %275, align 4
  %277 = mul nsw i32 %276, 100
  %278 = sub nsw i32 %272, %277
  %279 = sdiv i32 %278, 10
  %280 = load i32, i32* %8, align 4
  %281 = sext i32 %280 to i64
  %282 = getelementptr inbounds [99 x i32], [99 x i32]* %5, i64 0, i64 %281
  store i32 %279, i32* %282, align 4
  %283 = load i32, i32* %8, align 4
  %284 = sext i32 %283 to i64
  %285 = getelementptr inbounds [99 x i32], [99 x i32]* %7, i64 0, i64 %284
  %286 = load i32, i32* %285, align 4
  %287 = load i32, i32* %8, align 4
  %288 = sext i32 %287 to i64
  %289 = getelementptr inbounds [99 x i32], [99 x i32]* %4, i64 0, i64 %288
  %290 = load i32, i32* %289, align 4
  %291 = mul nsw i32 %290, 100
  %292 = sub nsw i32 %286, %291
  %293 = load i32, i32* %8, align 4
  %294 = sext i32 %293 to i64
  %295 = getelementptr inbounds [99 x i32], [99 x i32]* %5, i64 0, i64 %294
  %296 = load i32, i32* %295, align 4
  %297 = mul nsw i32 %296, 10
  %298 = sub nsw i32 %292, %297
  %299 = load i32, i32* %8, align 4
  %300 = sext i32 %299 to i64
  %301 = getelementptr inbounds [99 x i32], [99 x i32]* %6, i64 0, i64 %300
  store i32 %298, i32* %301, align 4
  %302 = load i32, i32* %8, align 4
  %303 = sext i32 %302 to i64
  %304 = getelementptr inbounds [99 x i32], [99 x i32]* %6, i64 0, i64 %303
  %305 = load i32, i32* %304, align 4
  %306 = load i32, i32* %8, align 4
  %307 = sext i32 %306 to i64
  %308 = getelementptr inbounds [99 x i32], [99 x i32]* %5, i64 0, i64 %307
  %309 = load i32, i32* %308, align 4
  %310 = load i32, i32* %8, align 4
  %311 = sext i32 %310 to i64
  %312 = getelementptr inbounds [99 x i32], [99 x i32]* %4, i64 0, i64 %311
  %313 = load i32, i32* %312, align 4
  %314 = call i32 (i8*, ...) @printf(i8* getelementptr inbounds ([8 x i8], [8 x i8]* @.str.3, i64 0, i64 0), i32 %305, i32 %309, i32 %313)
  br label %315

315:                                              ; preds = %260, %254, %248
  %316 = load i32, i32* %8, align 4
  %317 = sext i32 %316 to i64
  %318 = getelementptr inbounds [99 x i32], [99 x i32]* %7, i64 0, i64 %317
  %319 = load i32, i32* %318, align 4
  %320 = icmp sgt i32 %319, 9
  br i1 %320, label %321, label %358

321:                                              ; preds = %315
  %322 = load i32, i32* %8, align 4
  %323 = sext i32 %322 to i64
  %324 = getelementptr inbounds [99 x i32], [99 x i32]* %7, i64 0, i64 %323
  %325 = load i32, i32* %324, align 4
  %326 = icmp sle i32 %325, 99
  br i1 %326, label %327, label %358

327:                                              ; preds = %321
  %328 = load i32, i32* %8, align 4
  %329 = sext i32 %328 to i64
  %330 = getelementptr inbounds [99 x i32], [99 x i32]* %7, i64 0, i64 %329
  %331 = load i32, i32* %330, align 4
  %332 = sdiv i32 %331, 10
  %333 = load i32, i32* %8, align 4
  %334 = sext i32 %333 to i64
  %335 = getelementptr inbounds [99 x i32], [99 x i32]* %5, i64 0, i64 %334
  store i32 %332, i32* %335, align 4
  %336 = load i32, i32* %8, align 4
  %337 = sext i32 %336 to i64
  %338 = getelementptr inbounds [99 x i32], [99 x i32]* %7, i64 0, i64 %337
  %339 = load i32, i32* %338, align 4
  %340 = load i32, i32* %8, align 4
  %341 = sext i32 %340 to i64
  %342 = getelementptr inbounds [99 x i32], [99 x i32]* %5, i64 0, i64 %341
  %343 = load i32, i32* %342, align 4
  %344 = mul nsw i32 %343, 10
  %345 = sub nsw i32 %339, %344
  %346 = load i32, i32* %8, align 4
  %347 = sext i32 %346 to i64
  %348 = getelementptr inbounds [99 x i32], [99 x i32]* %6, i64 0, i64 %347
  store i32 %345, i32* %348, align 4
  %349 = load i32, i32* %8, align 4
  %350 = sext i32 %349 to i64
  %351 = getelementptr inbounds [99 x i32], [99 x i32]* %6, i64 0, i64 %350
  %352 = load i32, i32* %351, align 4
  %353 = load i32, i32* %8, align 4
  %354 = sext i32 %353 to i64
  %355 = getelementptr inbounds [99 x i32], [99 x i32]* %5, i64 0, i64 %354
  %356 = load i32, i32* %355, align 4
  %357 = call i32 (i8*, ...) @printf(i8* getelementptr inbounds ([6 x i8], [6 x i8]* @.str.4, i64 0, i64 0), i32 %352, i32 %356)
  br label %358

358:                                              ; preds = %327, %321, %315
  %359 = load i32, i32* %8, align 4
  %360 = sext i32 %359 to i64
  %361 = getelementptr inbounds [99 x i32], [99 x i32]* %7, i64 0, i64 %360
  %362 = load i32, i32* %361, align 4
  %363 = icmp sle i32 %362, 9
  br i1 %363, label %364, label %377

364:                                              ; preds = %358
  %365 = load i32, i32* %8, align 4
  %366 = sext i32 %365 to i64
  %367 = getelementptr inbounds [99 x i32], [99 x i32]* %7, i64 0, i64 %366
  %368 = load i32, i32* %367, align 4
  %369 = load i32, i32* %8, align 4
  %370 = sext i32 %369 to i64
  %371 = getelementptr inbounds [99 x i32], [99 x i32]* %6, i64 0, i64 %370
  store i32 %368, i32* %371, align 4
  %372 = load i32, i32* %8, align 4
  %373 = sext i32 %372 to i64
  %374 = getelementptr inbounds [99 x i32], [99 x i32]* %6, i64 0, i64 %373
  %375 = load i32, i32* %374, align 4
  %376 = call i32 (i8*, ...) @printf(i8* getelementptr inbounds ([4 x i8], [4 x i8]* @.str.5, i64 0, i64 0), i32 %375)
  br label %377

377:                                              ; preds = %364, %358
  br label %378

378:                                              ; preds = %377
  %379 = load i32, i32* %8, align 4
  %380 = add nsw i32 %379, 1
  store i32 %380, i32* %8, align 4
  br label %21

381:                                              ; preds = %21
  ret i32 0
}

declare dso_local i32 @__isoc99_scanf(i8*, ...) #1

declare dso_local i32 @printf(i8*, ...) #1


!llvm.module.flags = !{!0}
!llvm.ident = !{!1}

!0 = !{i32 1, !"wchar_size", i32 4}
!1 = !{!"clang version 10.0.0-4ubuntu1 "}
